target datalayout = "e-m:e-p270:32:32-p271:32:32-p272:64:64-i64:64-i128:128-f80:128-n8:16:32:64-S128"
target triple = "x86_64-pc-linux-gnu"

%struct.gmx_sel_lexer_t = type { ptr, %"class.std::__exception_ptr::exception_ptr", i8, ptr, i32, ptr, %"class.std::__cxx11::basic_string", %"struct.gmx::SelectionLocation", ptr, i32, i32, i32, ptr, i8, ptr, i32, i8, i8, i8, i8, ptr }
%"class.std::__exception_ptr::exception_ptr" = type { ptr }
%"class.std::__cxx11::basic_string" = type { %"struct.std::__cxx11::basic_string<char>::_Alloc_hider", i64, %union.anon }
%"struct.std::__cxx11::basic_string<char>::_Alloc_hider" = type { ptr }
%union.anon = type { i64, [8 x i8] }
%"struct.gmx::SelectionLocation" = type { i32, i32 }

; Function Attrs: mustprogress uwtable
define void @_Z22_gmx_sel_finish_methodPv(ptr noundef %0) #0 {
  %2 = alloca ptr, align 8
  %3 = alloca ptr, align 8
  store ptr %0, ptr %2, align 8
  %4 = load ptr, ptr %2, align 8
  %5 = call noundef ptr @_Z20_gmx_sel_yyget_extraPv(ptr noundef %4)
  store ptr %5, ptr %3, align 8
  %6 = load ptr, ptr %3, align 8
  %7 = getelementptr inbounds %struct.gmx_sel_lexer_t, ptr %6, i32 0, i32 9
  %8 = load i32, ptr %7, align 8
  %9 = icmp sge i32 %8, 0
  br i1 %9, label %10, label %15

10:                                               ; preds = %1
  %11 = load ptr, ptr %3, align 8
  %12 = getelementptr inbounds %struct.gmx_sel_lexer_t, ptr %11, i32 0, i32 9
  %13 = load i32, ptr %12, align 8
  %14 = add nsw i32 %13, -1
  store i32 %14, ptr %12, align 8
  br label %15

15:                                               ; preds = %10, %1
  ret void
}