; Function Attrs: mustprogress uwtable
define void @_Z22_gmx_sel_finish_methodPv(ptr noundef %0) local_unnamed_addr #0 {
  %2 = tail call noundef ptr @_Z20_gmx_sel_yyget_extraPv(ptr noundef %0)
  %3 = getelementptr inbounds i8, ptr %2, i64 96
  %4 = load i32, ptr %3, align 8
  %5 = icmp sgt i32 %4, -1
  br i1 %5, label %6, label %8

6:                                                ; preds = %1
  %7 = add nsw i32 %4, -1
  store i32 %7, ptr %3, align 8
  br label %8

8:                                                ; preds = %6, %1
  ret void
}